target datalayout = "e-m:e-p270:32:32-p271:32:32-p272:64:64-i64:64-i128:128-f80:128-n8:16:32:64-S128"
target triple = "x86_64-pc-linux-gnu"

%struct.SYSCACHECALLBACK = type { i16, i16, ptr, i64 }
%struct.RELCACHECALLBACK = type { ptr, i64 }

@syscache_callback_count = internal global i32 0, align 4
@syscache_callback_list = internal global [64 x %struct.SYSCACHECALLBACK] zeroinitializer, align 16
@relcache_callback_count = internal global i32 0, align 4
@relcache_callback_list = internal global [10 x %struct.RELCACHECALLBACK] zeroinitializer, align 16

; Function Attrs: nounwind uwtable
define dso_local void @InvalidateSystemCachesExtended(i1 noundef zeroext %0) #0 {
  %2 = alloca i8, align 1
  %3 = alloca i32, align 4
  %4 = alloca ptr, align 8
  %5 = alloca ptr, align 8
  %6 = zext i1 %0 to i8
  store i8 %6, ptr %2, align 1
  call void @llvm.lifetime.start.p0(i64 4, ptr %3) #7
  call void @InvalidateCatalogSnapshot()
  %7 = load i8, ptr %2, align 1, !range !4, !noundef !5
  %8 = trunc i8 %7 to i1
  call void @ResetCatalogCachesExt(i1 noundef zeroext %8)
  %9 = load i8, ptr %2, align 1, !range !4, !noundef !5
  %10 = trunc i8 %9 to i1
  call void @RelationCacheInvalidate(i1 noundef zeroext %10)
  store i32 0, ptr %3, align 4
  br label %11

11:                                               ; preds = %29, %1
  %12 = load i32, ptr %3, align 4
  %13 = load i32, ptr @syscache_callback_count, align 4
  %14 = icmp slt i32 %12, %13
  br i1 %14, label %15, label %32

15:                                               ; preds = %11
  call void @llvm.lifetime.start.p0(i64 8, ptr %4) #7
  %16 = load i32, ptr %3, align 4
  %17 = sext i32 %16 to i64
  %18 = getelementptr inbounds %struct.SYSCACHECALLBACK, ptr @syscache_callback_list, i64 %17
  store ptr %18, ptr %4, align 8
  %19 = load ptr, ptr %4, align 8
  %20 = getelementptr inbounds nuw %struct.SYSCACHECALLBACK, ptr %19, i32 0, i32 2
  %21 = load ptr, ptr %20, align 8
  %22 = load ptr, ptr %4, align 8
  %23 = getelementptr inbounds nuw %struct.SYSCACHECALLBACK, ptr %22, i32 0, i32 3
  %24 = load i64, ptr %23, align 8
  %25 = load ptr, ptr %4, align 8
  %26 = getelementptr inbounds nuw %struct.SYSCACHECALLBACK, ptr %25, i32 0, i32 0
  %27 = load i16, ptr %26, align 8
  %28 = sext i16 %27 to i32
  call void %21(i64 noundef %24, i32 noundef %28, i32 noundef 0)
  call void @llvm.lifetime.end.p0(i64 8, ptr %4) #7
  br label %29

29:                                               ; preds = %15
  %30 = load i32, ptr %3, align 4
  %31 = add i32 %30, 1
  store i32 %31, ptr %3, align 4
  br label %11, !llvm.loop !6

32:                                               ; preds = %11
  store i32 0, ptr %3, align 4
  br label %33

33:                                               ; preds = %47, %32
  %34 = load i32, ptr %3, align 4
  %35 = load i32, ptr @relcache_callback_count, align 4
  %36 = icmp slt i32 %34, %35
  br i1 %36, label %37, label %50

37:                                               ; preds = %33
  call void @llvm.lifetime.start.p0(i64 8, ptr %5) #7
  %38 = load i32, ptr %3, align 4
  %39 = sext i32 %38 to i64
  %40 = getelementptr inbounds %struct.RELCACHECALLBACK, ptr @relcache_callback_list, i64 %39
  store ptr %40, ptr %5, align 8
  %41 = load ptr, ptr %5, align 8
  %42 = getelementptr inbounds nuw %struct.RELCACHECALLBACK, ptr %41, i32 0, i32 0
  %43 = load ptr, ptr %42, align 8
  %44 = load ptr, ptr %5, align 8
  %45 = getelementptr inbounds nuw %struct.RELCACHECALLBACK, ptr %44, i32 0, i32 1
  %46 = load i64, ptr %45, align 8
  call void %43(i64 noundef %46, i32 noundef 0)
  call void @llvm.lifetime.end.p0(i64 8, ptr %5) #7
  br label %47

47:                                               ; preds = %37
  %48 = load i32, ptr %3, align 4
  %49 = add i32 %48, 1
  store i32 %49, ptr %3, align 4
  br label %33, !llvm.loop !8

50:                                               ; preds = %33
  call void @llvm.lifetime.end.p0(i64 4, ptr %3) #7
  ret void
}