; Function Attrs: nounwind uwtable
define dso_local void @InvalidateSystemCachesExtended(i1 noundef zeroext %0) local_unnamed_addr #0 {
  tail call void @InvalidateCatalogSnapshot() #7
  tail call void @ResetCatalogCachesExt(i1 noundef zeroext %0) #7
  tail call void @RelationCacheInvalidate(i1 noundef zeroext %0) #7
  %2 = load i32, ptr @syscache_callback_count, align 4
  %3 = icmp sgt i32 %2, 0
  br i1 %3, label %.lr.ph, label %.preheader

.preheader:                                       ; preds = %.lr.ph, %1
  %4 = load i32, ptr @relcache_callback_count, align 4
  %5 = icmp sgt i32 %4, 0
  br i1 %5, label %.lr.ph14, label %._crit_edge

.lr.ph:                                           ; preds = %1, %.lr.ph
  %indvars.iv = phi i64 [ %indvars.iv.next, %.lr.ph ], [ 0, %1 ]
  %6 = getelementptr inbounds nuw %struct.SYSCACHECALLBACK, ptr @syscache_callback_list, i64 %indvars.iv
  %7 = getelementptr inbounds nuw i8, ptr %6, i64 8
  %8 = load ptr, ptr %7, align 8
  %9 = getelementptr inbounds nuw i8, ptr %6, i64 16
  %10 = load i64, ptr %9, align 8
  %11 = load i16, ptr %6, align 8
  %12 = sext i16 %11 to i32
  tail call void %8(i64 noundef %10, i32 noundef %12, i32 noundef 0) #7
  %indvars.iv.next = add nuw nsw i64 %indvars.iv, 1
  %13 = load i32, ptr @syscache_callback_count, align 4
  %14 = sext i32 %13 to i64
  %15 = icmp slt i64 %indvars.iv.next, %14
  br i1 %15, label %.lr.ph, label %.preheader, !llvm.loop !4

.lr.ph14:                                         ; preds = %.preheader, %.lr.ph14
  %indvars.iv16 = phi i64 [ %indvars.iv.next17, %.lr.ph14 ], [ 0, %.preheader ]
  %16 = getelementptr inbounds nuw %struct.RELCACHECALLBACK, ptr @relcache_callback_list, i64 %indvars.iv16
  %17 = load ptr, ptr %16, align 16
  %18 = getelementptr inbounds nuw i8, ptr %16, i64 8
  %19 = load i64, ptr %18, align 8
  tail call void %17(i64 noundef %19, i32 noundef 0) #7
  %indvars.iv.next17 = add nuw nsw i64 %indvars.iv16, 1
  %20 = load i32, ptr @relcache_callback_count, align 4
  %21 = sext i32 %20 to i64
  %22 = icmp slt i64 %indvars.iv.next17, %21
  br i1 %22, label %.lr.ph14, label %._crit_edge, !llvm.loop !6

._crit_edge:                                      ; preds = %.lr.ph14, %.preheader
  ret void
}